target datalayout = "e-m:e-p270:32:32-p271:32:32-p272:64:64-i64:64-i128:128-f80:128-n8:16:32:64-S128"
target triple = "x86_64-pc-linux-gnu"

%"class.icu_77::UObject" = type { ptr }
%"class.icu_77::UnicodeString" = type { %"class.icu_77::Replaceable", %"union.icu_77::UnicodeString::StackBufferOrFields" }
%"class.icu_77::Replaceable" = type { %"class.icu_77::UObject" }
%"union.icu_77::UnicodeString::StackBufferOrFields" = type { %struct.anon.0, [32 x i8] }
%struct.anon.0 = type { i16, i32, i32, ptr }
%"class.icu_77::Char16Ptr" = type { ptr }

; Function Attrs: inlinehint mustprogress nounwind uwtable
define linkonce_odr void @_ZN6icu_779Char16PtrD2Ev(ptr noundef nonnull align 8 dereferenceable(8) %0) unnamed_addr #2 comdat align 2 {
  %2 = alloca ptr, align 8
  store ptr %0, ptr %2, align 8, !tbaa !111
  %3 = load ptr, ptr %2, align 8
  %4 = getelementptr inbounds nuw %"class.icu_77::Char16Ptr", ptr %3, i32 0, i32 0
  %5 = load ptr, ptr %4, align 8, !tbaa !113
  call void asm sideeffect "", "rm,~{memory},~{dirflag},~{fpsr},~{flags}"(ptr %5) #13, !srcloc !115
  ret void
}

; Function Attrs: inlinehint mustprogress nounwind uwtable
define linkonce_odr void @_ZN6icu_779Char16PtrC2EPDs(ptr noundef nonnull align 8 dereferenceable(8) %0, ptr noundef %1) unnamed_addr #2 comdat align 2 {
  %3 = alloca ptr, align 8
  %4 = alloca ptr, align 8
  store ptr %0, ptr %3, align 8, !tbaa !111
  store ptr %1, ptr %4, align 8, !tbaa !33
  %5 = load ptr, ptr %3, align 8
  %6 = getelementptr inbounds nuw %"class.icu_77::Char16Ptr", ptr %5, i32 0, i32 0
  %7 = load ptr, ptr %4, align 8, !tbaa !33
  store ptr %7, ptr %6, align 8, !tbaa !113
  ret void
}

; Function Attrs: inlinehint mustprogress nounwind uwtable
define internal noundef signext i8 @_ZL9U_FAILURE10UErrorCode(i32 noundef %0) #2 {
  %2 = alloca i32, align 4
  store i32 %0, ptr %2, align 4, !tbaa !15
  %3 = load i32, ptr %2, align 4, !tbaa !15
  %4 = icmp sgt i32 %3, 0
  %5 = zext i1 %4 to i8
  ret i8 %5
}

; Function Attrs: mustprogress uwtable
define i32 @uldn_keyDisplayName_77(ptr noundef %0, ptr noundef %1, ptr noundef %2, i32 noundef %3, ptr noundef %4) #1 personality ptr @__gxx_personality_v0 {
  %6 = alloca i32, align 4
  %7 = alloca ptr, align 8
  %8 = alloca ptr, align 8
  %9 = alloca ptr, align 8
  %10 = alloca i32, align 4
  %11 = alloca ptr, align 8
  %12 = alloca %"class.icu_77::UnicodeString", align 8
  %13 = alloca ptr, align 8
  %14 = alloca i32, align 4
  %15 = alloca %"class.icu_77::Char16Ptr", align 8
  store ptr %0, ptr %7, align 8, !tbaa !109
  store ptr %1, ptr %8, align 8, !tbaa !17
  store ptr %2, ptr %9, align 8, !tbaa !33
  store i32 %3, ptr %10, align 4, !tbaa !14
  store ptr %4, ptr %11, align 8, !tbaa !22
  %16 = load ptr, ptr %11, align 8, !tbaa !22
  %17 = load i32, ptr %16, align 4, !tbaa !15
  %18 = call noundef signext i8 @_ZL9U_FAILURE10UErrorCode(i32 noundef %17)
  %19 = icmp ne i8 %18, 0
  br i1 %19, label %20, label %21

20:                                               ; preds = %5
  store i32 0, ptr %6, align 4
  br label %63

21:                                               ; preds = %5
  %22 = load ptr, ptr %7, align 8, !tbaa !109
  %23 = icmp eq ptr %22, null
  br i1 %23, label %36, label %24

24:                                               ; preds = %21
  %25 = load ptr, ptr %8, align 8, !tbaa !17
  %26 = icmp eq ptr %25, null
  br i1 %26, label %36, label %27

27:                                               ; preds = %24
  %28 = load ptr, ptr %9, align 8, !tbaa !33
  %29 = icmp eq ptr %28, null
  br i1 %29, label %30, label %33

30:                                               ; preds = %27
  %31 = load i32, ptr %10, align 4, !tbaa !14
  %32 = icmp sgt i32 %31, 0
  br i1 %32, label %36, label %33

33:                                               ; preds = %30, %27
  %34 = load i32, ptr %10, align 4, !tbaa !14
  %35 = icmp slt i32 %34, 0
  br i1 %35, label %36, label %38

36:                                               ; preds = %33, %30, %24, %21
  %37 = load ptr, ptr %11, align 8, !tbaa !22
  store i32 1, ptr %37, align 4, !tbaa !15
  store i32 0, ptr %6, align 4
  br label %63

38:                                               ; preds = %33
  call void @llvm.lifetime.start.p0(i64 64, ptr %12) #13
  %39 = load ptr, ptr %9, align 8, !tbaa !33
  %40 = load i32, ptr %10, align 4, !tbaa !14
  call void @_ZN6icu_7713UnicodeStringC1EPDsii(ptr noundef nonnull align 8 dereferenceable(64) %12, ptr noundef %39, i32 noundef 0, i32 noundef %40)
  %41 = load ptr, ptr %7, align 8, !tbaa !109
  %42 = load ptr, ptr %8, align 8, !tbaa !17
  %43 = load ptr, ptr %41, align 8, !tbaa !42
  %44 = getelementptr inbounds ptr, ptr %43, i64 13
  %45 = load ptr, ptr %44, align 8
  %46 = invoke noundef nonnull align 8 dereferenceable(64) ptr %45(ptr noundef nonnull align 8 dereferenceable(8) %41, ptr noundef %42, ptr noundef nonnull align 8 dereferenceable(64) %12)
          to label %47 unwind label %54

47:                                               ; preds = %38
  %48 = load ptr, ptr %9, align 8, !tbaa !33
  invoke void @_ZN6icu_779Char16PtrC2EPDs(ptr noundef nonnull align 8 dereferenceable(8) %15, ptr noundef %48)
          to label %49 unwind label %54

49:                                               ; preds = %47
  %50 = load i32, ptr %10, align 4, !tbaa !14
  %51 = load ptr, ptr %11, align 8, !tbaa !22
  %52 = invoke noundef i32 @_ZNK6icu_7713UnicodeString7extractENS_9Char16PtrEiR10UErrorCode(ptr noundef nonnull align 8 dereferenceable(64) %12, ptr noundef %15, i32 noundef %50, ptr noundef nonnull align 4 dereferenceable(4) %51)
          to label %53 unwind label %58

53:                                               ; preds = %49
  store i32 %52, ptr %6, align 4
  call void @_ZN6icu_779Char16PtrD2Ev(ptr noundef nonnull align 8 dereferenceable(8) %15) #13
  call void @_ZN6icu_7713UnicodeStringD1Ev(ptr noundef nonnull align 8 dereferenceable(64) %12) #13
  call void @llvm.lifetime.end.p0(i64 64, ptr %12) #13
  br label %63

54:                                               ; preds = %47, %38
  %55 = landingpad { ptr, i32 }
          cleanup
  %56 = extractvalue { ptr, i32 } %55, 0
  store ptr %56, ptr %13, align 8
  %57 = extractvalue { ptr, i32 } %55, 1
  store i32 %57, ptr %14, align 4
  br label %62

58:                                               ; preds = %49
  %59 = landingpad { ptr, i32 }
          cleanup
  %60 = extractvalue { ptr, i32 } %59, 0
  store ptr %60, ptr %13, align 8
  %61 = extractvalue { ptr, i32 } %59, 1
  store i32 %61, ptr %14, align 4
  call void @_ZN6icu_779Char16PtrD2Ev(ptr noundef nonnull align 8 dereferenceable(8) %15) #13
  br label %62

62:                                               ; preds = %58, %54
  call void @_ZN6icu_7713UnicodeStringD1Ev(ptr noundef nonnull align 8 dereferenceable(64) %12) #13
  call void @llvm.lifetime.end.p0(i64 64, ptr %12) #13
  br label %65

63:                                               ; preds = %53, %36, %20
  %64 = load i32, ptr %6, align 4
  ret i32 %64

65:                                               ; preds = %62
  %66 = load ptr, ptr %13, align 8
  %67 = load i32, ptr %14, align 4
  %68 = insertvalue { ptr, i32 } poison, ptr %66, 0
  %69 = insertvalue { ptr, i32 } %68, i32 %67, 1
  resume { ptr, i32 } %69
}